; Function Attrs: mustprogress uwtable
define hidden noundef ptr @_Z11mk_distinctR11ast_managerjPKP4expr(ptr noundef nonnull align 8 dereferenceable(976) %0, i32 noundef %1, ptr noundef %2) local_unnamed_addr #3 {
  switch i32 %1, label %13 [
    i32 0, label %4
    i32 1, label %4
    i32 2, label %7
  ]

4:                                                ; preds = %3, %3
  %5 = getelementptr inbounds nuw i8, ptr %0, i64 856
  %6 = load ptr, ptr %5, align 8, !tbaa !60
  br label %15

7:                                                ; preds = %3
  %8 = load ptr, ptr %2, align 8, !tbaa !3
  %9 = getelementptr inbounds nuw i8, ptr %2, i64 8
  %10 = load ptr, ptr %9, align 8, !tbaa !3
  %11 = tail call noundef ptr @_ZN11ast_manager6mk_appEiiP4exprS1_(ptr noundef nonnull align 8 dereferenceable(976) %0, i32 noundef 0, i32 noundef 2, ptr noundef %8, ptr noundef %10)
  %12 = tail call noundef ptr @_ZN11ast_manager6mk_appEiiP4expr(ptr noundef nonnull align 8 dereferenceable(976) %0, i32 noundef 0, i32 noundef 8, ptr noundef %11)
  br label %15

13:                                               ; preds = %3
  %14 = tail call noundef ptr @_ZN11ast_manager11mk_distinctEjPKP4expr(ptr noundef nonnull align 8 dereferenceable(976) %0, i32 noundef %1, ptr noundef %2)
  br label %15

15:                                               ; preds = %13, %7, %4
  %.0 = phi ptr [ %14, %13 ], [ %12, %7 ], [ %6, %4 ]
  ret ptr %.0
}